target datalayout = "e-m:e-p270:32:32-p271:32:32-p272:64:64-i64:64-i128:128-f80:128-n8:16:32:64-S128"
target triple = "x86_64-pc-linux-gnu"

%struct._object = type { %union.anon, ptr }
%union.anon = type { i64 }
%struct.Py_buffer = type { ptr, ptr, i64, i64, i32, i32, ptr, ptr, ptr, ptr, ptr }
%struct.unpackiterobject = type { %struct._object, ptr, %struct.Py_buffer, i64 }

; Function Attrs: inlinehint nounwind uwtable
define internal ptr @_Py_TYPE(ptr noundef %0) #2 {
  %2 = alloca ptr, align 8
  store ptr %0, ptr %2, align 8, !tbaa !3
  %3 = load ptr, ptr %2, align 8, !tbaa !3
  %4 = getelementptr inbounds nuw %struct._object, ptr %3, i32 0, i32 1
  %5 = load ptr, ptr %4, align 8, !tbaa !41
  ret ptr %5
}

; Function Attrs: nounwind uwtable
define internal i32 @unpackiter_traverse(ptr noundef %0, ptr noundef %1, ptr noundef %2) #0 {
  %4 = alloca i32, align 4
  %5 = alloca ptr, align 8
  %6 = alloca ptr, align 8
  %7 = alloca ptr, align 8
  %8 = alloca i32, align 4
  %9 = alloca i32, align 4
  %10 = alloca i32, align 4
  %11 = alloca i32, align 4
  store ptr %0, ptr %5, align 8, !tbaa !8
  store ptr %1, ptr %6, align 8, !tbaa !8
  store ptr %2, ptr %7, align 8, !tbaa !8
  br label %12

12:                                               ; preds = %3
  %13 = load ptr, ptr %5, align 8, !tbaa !8
  %14 = call ptr @_Py_TYPE(ptr noundef %13)
  %15 = icmp ne ptr %14, null
  br i1 %15, label %16, label %30

16:                                               ; preds = %12
  call void @llvm.lifetime.start.p0(i64 4, ptr %8) #8
  %17 = load ptr, ptr %6, align 8, !tbaa !8
  %18 = load ptr, ptr %5, align 8, !tbaa !8
  %19 = call ptr @_Py_TYPE(ptr noundef %18)
  %20 = load ptr, ptr %7, align 8, !tbaa !8
  %21 = call i32 %17(ptr noundef %19, ptr noundef %20)
  store i32 %21, ptr %8, align 4, !tbaa !11
  %22 = load i32, ptr %8, align 4, !tbaa !11
  %23 = icmp ne i32 %22, 0
  br i1 %23, label %24, label %26

24:                                               ; preds = %16
  %25 = load i32, ptr %8, align 4, !tbaa !11
  store i32 %25, ptr %4, align 4
  store i32 1, ptr %9, align 4
  br label %27

26:                                               ; preds = %16
  store i32 0, ptr %9, align 4
  br label %27

27:                                               ; preds = %26, %24
  call void @llvm.lifetime.end.p0(i64 4, ptr %8) #8
  %28 = load i32, ptr %9, align 4
  switch i32 %28, label %80 [
    i32 0, label %29
    i32 1, label %78
  ]

29:                                               ; preds = %27
  br label %30

30:                                               ; preds = %29, %12
  br label %31

31:                                               ; preds = %30
  br label %32

32:                                               ; preds = %31
  %33 = load ptr, ptr %5, align 8, !tbaa !8
  %34 = getelementptr inbounds nuw %struct.unpackiterobject, ptr %33, i32 0, i32 1
  %35 = load ptr, ptr %34, align 8, !tbaa !39
  %36 = icmp ne ptr %35, null
  br i1 %36, label %37, label %52

37:                                               ; preds = %32
  call void @llvm.lifetime.start.p0(i64 4, ptr %10) #8
  %38 = load ptr, ptr %6, align 8, !tbaa !8
  %39 = load ptr, ptr %5, align 8, !tbaa !8
  %40 = getelementptr inbounds nuw %struct.unpackiterobject, ptr %39, i32 0, i32 1
  %41 = load ptr, ptr %40, align 8, !tbaa !39
  %42 = load ptr, ptr %7, align 8, !tbaa !8
  %43 = call i32 %38(ptr noundef %41, ptr noundef %42)
  store i32 %43, ptr %10, align 4, !tbaa !11
  %44 = load i32, ptr %10, align 4, !tbaa !11
  %45 = icmp ne i32 %44, 0
  br i1 %45, label %46, label %48

46:                                               ; preds = %37
  %47 = load i32, ptr %10, align 4, !tbaa !11
  store i32 %47, ptr %4, align 4
  store i32 1, ptr %9, align 4
  br label %49

48:                                               ; preds = %37
  store i32 0, ptr %9, align 4
  br label %49

49:                                               ; preds = %48, %46
  call void @llvm.lifetime.end.p0(i64 4, ptr %10) #8
  %50 = load i32, ptr %9, align 4
  switch i32 %50, label %80 [
    i32 0, label %51
    i32 1, label %78
  ]

51:                                               ; preds = %49
  br label %52

52:                                               ; preds = %51, %32
  br label %53

53:                                               ; preds = %52
  br label %54

54:                                               ; preds = %53
  %55 = load ptr, ptr %5, align 8, !tbaa !8
  %56 = getelementptr inbounds nuw %struct.unpackiterobject, ptr %55, i32 0, i32 2
  %57 = getelementptr inbounds nuw %struct.Py_buffer, ptr %56, i32 0, i32 1
  %58 = load ptr, ptr %57, align 8, !tbaa !105
  %59 = icmp ne ptr %58, null
  br i1 %59, label %60, label %76

60:                                               ; preds = %54
  call void @llvm.lifetime.start.p0(i64 4, ptr %11) #8
  %61 = load ptr, ptr %6, align 8, !tbaa !8
  %62 = load ptr, ptr %5, align 8, !tbaa !8
  %63 = getelementptr inbounds nuw %struct.unpackiterobject, ptr %62, i32 0, i32 2
  %64 = getelementptr inbounds nuw %struct.Py_buffer, ptr %63, i32 0, i32 1
  %65 = load ptr, ptr %64, align 8, !tbaa !105
  %66 = load ptr, ptr %7, align 8, !tbaa !8
  %67 = call i32 %61(ptr noundef %65, ptr noundef %66)
  store i32 %67, ptr %11, align 4, !tbaa !11
  %68 = load i32, ptr %11, align 4, !tbaa !11
  %69 = icmp ne i32 %68, 0
  br i1 %69, label %70, label %72

70:                                               ; preds = %60
  %71 = load i32, ptr %11, align 4, !tbaa !11
  store i32 %71, ptr %4, align 4
  store i32 1, ptr %9, align 4
  br label %73

72:                                               ; preds = %60
  store i32 0, ptr %9, align 4
  br label %73

73:                                               ; preds = %72, %70
  call void @llvm.lifetime.end.p0(i64 4, ptr %11) #8
  %74 = load i32, ptr %9, align 4
  switch i32 %74, label %80 [
    i32 0, label %75
    i32 1, label %78
  ]

75:                                               ; preds = %73
  br label %76

76:                                               ; preds = %75, %54
  br label %77

77:                                               ; preds = %76
  store i32 0, ptr %4, align 4
  br label %78

78:                                               ; preds = %77, %73, %49, %27
  %79 = load i32, ptr %4, align 4
  ret i32 %79

80:                                               ; preds = %73, %49, %27
  unreachable
}