; Function Attrs: nounwind uwtable
define internal i32 @unpackiter_traverse(ptr noundef readonly captures(none) %0, ptr noundef readonly captures(none) %1, ptr noundef %2) #0 {
  %4 = getelementptr i8, ptr %0, i64 8
  %.val36 = load ptr, ptr %4, align 8, !tbaa !24
  %.not = icmp eq ptr %.val36, null
  br i1 %.not, label %7, label %5

5:                                                ; preds = %3
  %6 = tail call i32 %1(ptr noundef nonnull %.val36, ptr noundef %2) #7
  %.not27.not = icmp eq i32 %6, 0
  br i1 %.not27.not, label %7, label %18

7:                                                ; preds = %5, %3
  %8 = getelementptr inbounds nuw i8, ptr %0, i64 16
  %9 = load ptr, ptr %8, align 8, !tbaa !40
  %.not28 = icmp eq ptr %9, null
  br i1 %.not28, label %12, label %10

10:                                               ; preds = %7
  %11 = tail call i32 %1(ptr noundef nonnull %9, ptr noundef %2) #7
  %.not29.not = icmp eq i32 %11, 0
  br i1 %.not29.not, label %12, label %18

12:                                               ; preds = %10, %7
  %13 = getelementptr inbounds nuw i8, ptr %0, i64 32
  %14 = load ptr, ptr %13, align 8, !tbaa !89
  %.not30 = icmp eq ptr %14, null
  br i1 %.not30, label %17, label %15

15:                                               ; preds = %12
  %16 = tail call i32 %1(ptr noundef nonnull %14, ptr noundef %2) #7
  %.not31.not = icmp eq i32 %16, 0
  br i1 %.not31.not, label %17, label %18

17:                                               ; preds = %15, %12
  br label %18

18:                                               ; preds = %15, %10, %5, %17
  %.1 = phi i32 [ %6, %5 ], [ %11, %10 ], [ %16, %15 ], [ 0, %17 ]
  ret i32 %.1
}